; Function Attrs: nounwind uwtable
define hidden void @_glfwInputJoystick(ptr noundef %0, i32 noundef %1) local_unnamed_addr #0 {
  switch i32 %1, label %5 [
    i32 262145, label %.sink.split
    i32 262146, label %3
  ]

3:                                                ; preds = %2
  br label %.sink.split

.sink.split:                                      ; preds = %2, %3
  %.sink = phi i32 [ 0, %3 ], [ 1, %2 ]
  %4 = getelementptr inbounds nuw i8, ptr %0, i64 4
  store i32 %.sink, ptr %4, align 4, !tbaa !63
  br label %5

5:                                                ; preds = %.sink.split, %2
  %6 = load ptr, ptr getelementptr inbounds nuw (i8, ptr @_glfw, i64 133880), align 8, !tbaa !68
  %.not = icmp eq ptr %6, null
  br i1 %.not, label %12, label %7

7:                                                ; preds = %5
  %8 = ptrtoint ptr %0 to i64
  %9 = sub i64 %8, ptrtoint (ptr getelementptr inbounds nuw (i8, ptr @_glfw, i64 1936) to i64)
  %10 = sdiv exact i64 %9, 8216
  %11 = trunc i64 %10 to i32
  tail call void %6(i32 noundef %11, i32 noundef %1) #12
  br label %12

12:                                               ; preds = %7, %5
  ret void
}